(lp1
(lp2
I11
aI6
aI0
aI0
aa(lp3
I14
aI9
aI0
aI0
aa(lp4
I10
aI6
aI0
aI0
aa(lp5
I11
aI6
aI0
aI0
aa(lp6
I12
aI6
aI0
aI0
aa(lp7
I19
aI13
aI0
aI0
aa(lp8
I12
aI8
aI0
aI0
aa(lp9
I13
aI8
aI0
aI0
aa(lp10
I16
aI11
aI0
aI0
aa(lp11
I17
aI9
aI0
aI0
aa(lp12
I19
aI12
aI0
aI0
aa(lp13
I14
aI9
aI0
aI0
aa(lp14
I20
aI14
aI0
aI0
aa(lp15
I14
aI10
aI0
aI0
aa(lp16
I15
aI11
aI0
aI0
aa(lp17
I13
aI8
aI0
aI0
aa(lp18
I17
aI10
aI0
aI0
aa(lp19
I18
aI14
aI0
aI0
aa(lp20
I17
aI12
aI0
aI0
aa(lp21
I13
aI6
aI0
aI0
aa(lp22
I18
aI12
aI0
aI0
aa(lp23
I11
aI7
aI0
aI0
aa(lp24
I14
aI7
aI0
aI0
aa(lp25
I13
aI8
aI0
aI0
aa(lp26
I11
aI7
aI0
aI0
aa(lp27
I13
aI6
aI0
aI0
aa(lp28
I10
aI5
aI0
aI0
aa(lp29
I14
aI7
aI0
aI0
aa(lp30
I14
aI7
aI0
aI0
aa(lp31
I11
aI4
aI0
aI0
aa(lp32
I20
aI14
aI0
aI0
aa(lp33
I16
aI8
aI0
aI0
aa(lp34
I8
aI4
aI0
aI0
aa(lp35
I17
aI12
aI0
aI0
aa(lp36
I15
aI11
aI0
aI0
aa(lp37
I13
aI7
aI0
aI0
aa(lp38
I21
aI16
aI0
aI0
aa(lp39
I15
aI10
aI0
aI0
aa(lp40
I13
aI8
aI0
aI0
aa(lp41
I14
aI8
aI0
aI0
aa(lp42
I9
aI6
aI0
aI0
aa(lp43
I11
aI6
aI0
aI0
aa(lp44
I12
aI7
aI0
aI0
aa(lp45
I11
aI7
aI0
aI0
aa(lp46
I14
aI8
aI0
aI0
aa(lp47
I8
aI5
aI0
aI0
aa(lp48
I14
aI8
aI0
aI0
aa(lp49
I11
aI6
aI0
aI0
aa(lp50
I12
aI7
aI0
aI0
aa(lp51
I17
aI13
aI0
aI0
aa(lp52
I22
aI15
aI0
aI0
aa(lp53
I14
aI10
aI0
aI0
aa(lp54
I13
aI8
aI0
aI0
aa(lp55
I12
aI6
aI0
aI0
aa(lp56
I12
aI8
aI0
aI0
aa(lp57
I15
aI11
aI0
aI0
aa(lp58
I19
aI10
aI0
aI0
aa(lp59
I21
aI16
aI0
aI0
aa(lp60
I19
aI11
aI0
aI0
aa(lp61
I18
aI12
aI0
aI0
aa(lp62
I21
aI15
aI0
aI0
aa(lp63
I18
aI12
aI0
aI0
aa(lp64
I18
aI13
aI0
aI0
aa(lp65
I14
aI8
aI0
aI0
aa(lp66
I15
aI9
aI0
aI0
aa(lp67
I12
aI7
aI0
aI0
aa(lp68
I12
aI7
aI0
aI0
aa(lp69
I11
aI6
aI0
aI0
aa(lp70
I12
aI7
aI0
aI0
aa(lp71
I13
aI9
aI0
aI0
aa(lp72
I9
aI4
aI0
aI0
aa(lp73
I13
aI7
aI0
aI0
aa(lp74
I13
aI8
aI0
aI0
aa(lp75
I12
aI9
aI0
aI0
aa(lp76
I11
aI5
aI0
aI0
aa(lp77
I10
aI7
aI0
aI0
aa(lp78
I14
aI9
aI0
aI0
aa(lp79
I15
aI10
aI0
aI0
aa(lp80
I16
aI10
aI0
aI0
aa(lp81
I14
aI10
aI0
aI0
aa(lp82
I20
aI13
aI0
aI0
aa(lp83
I10
aI4
aI0
aI0
aa(lp84
I11
aI6
aI0
aI0
aa(lp85
I16
aI10
aI0
aI0
aa(lp86
I19
aI13
aI0
aI0
aa(lp87
I15
aI8
aI0
aI0
aa(lp88
I13
aI6
aI0
aI0
aa(lp89
I7
aI2
aI0
aI0
aa(lp90
I16
aI8
aI0
aI0
aa(lp91
I12
aI6
aI0
aI0
aa(lp92
I14
aI8
aI0
aI0
aa(lp93
I12
aI6
aI0
aI0
aa(lp94
I12
aI7
aI0
aI0
aa(lp95
I17
aI12
aI0
aI0
aa(lp96
I16
aI11
aI0
aI0
aa(lp97
I16
aI10
aI0
aI0
aa(lp98
I18
aI13
aI0
aI0
aa(lp99
I11
aI6
aI0
aI0
aa(lp100
I14
aI10
aI0
aI0
aa(lp101
I19
aI13
aI0
aI0
aa(lp102
I16
aI10
aI0
aI0
aa(lp103
I21
aI14
aI0
aI0
aa(lp104
I8
aI4
aI0
aI0
aa(lp105
I15
aI10
aI0
aI0
aa(lp106
I14
aI9
aI0
aI0
aa(lp107
I10
aI6
aI0
aI0
aa(lp108
I12
aI7
aI0
aI0
aa(lp109
I12
aI8
aI0
aI0
aa(lp110
I11
aI6
aI0
aI0
aa(lp111
I12
aI8
aI0
aI0
aa(lp112
I15
aI9
aI0
aI0
aa(lp113
I13
aI8
aI0
aI0
aa(lp114
I16
aI9
aI0
aI0
aa(lp115
I14
aI8
aI0
aI0
aa(lp116
I13
aI8
aI0
aI0
aa(lp117
I13
aI8
aI0
aI0
aa(lp118
I15
aI11
aI0
aI0
aa(lp119
I14
aI10
aI0
aI0
aa(lp120
I10
aI5
aI0
aI0
aa(lp121
I14
aI7
aI0
aI0
aa(lp122
I9
aI3
aI0
aI0
aa(lp123
I19
aI11
aI0
aI0
aa(lp124
I11
aI7
aI0
aI0
aa(lp125
I11
aI5
aI0
aI0
aa(lp126
I15
aI10
aI0
aI0
aa(lp127
I18
aI13
aI0
aI0
aa(lp128
I20
aI14
aI0
aI0
aa(lp129
I13
aI7
aI0
aI0
aa(lp130
I16
aI9
aI0
aI0
aa(lp131
I14
aI9
aI0
aI0
aa(lp132
I12
aI6
aI0
aI0
aa(lp133
I11
aI8
aI0
aI0
aa(lp134
I12
aI7
aI0
aI0
aa(lp135
I12
aI8
aI0
aI0
aa(lp136
I13
aI9
aI0
aI0
aa(lp137
I12
aI7
aI0
aI0
aa(lp138
I12
aI7
aI0
aI0
aa(lp139
I13
aI7
aI0
aI0
aa(lp140
I13
aI8
aI0
aI0
aa(lp141
I8
aI4
aI0
aI0
aa(lp142
I20
aI13
aI0
aI0
aa(lp143
I17
aI10
aI0
aI0
aa(lp144
I19
aI13
aI0
aI0
aa(lp145
I17
aI12
aI0
aI0
aa(lp146
I19
aI12
aI0
aI0
aa(lp147
I17
aI10
aI0
aI0
aa(lp148
I15
aI10
aI0
aI0
aa(lp149
I14
aI8
aI0
aI0
aa(lp150
I22
aI16
aI0
aI0
aa(lp151
I20
aI14
aI0
aI0
aa(lp152
I15
aI10
aI0
aI0
aa(lp153
I14
aI10
aI0
aI0
aa(lp154
I9
aI5
aI0
aI0
aa(lp155
I26
aI18
aI0
aI0
aa(lp156
I20
aI12
aI0
aI0
aa(lp157
I17
aI12
aI0
aI0
aa(lp158
I13
aI9
aI0
aI0
aa(lp159
I12
aI5
aI0
aI0
aa(lp160
I14
aI10
aI0
aI0
aa(lp161
I12
aI6
aI0
aI0
aa(lp162
I26
aI16
aI0
aI0
aa(lp163
I11
aI7
aI0
aI0
aa(lp164
I16
aI10
aI0
aI0
aa(lp165
I16
aI10
aI0
aI0
aa(lp166
I13
aI8
aI0
aI0
aa(lp167
I20
aI11
aI0
aI0
aa(lp168
I16
aI10
aI0
aI0
aa(lp169
I19
aI14
aI0
aI0
aa(lp170
I28
aI20
aI0
aI0
aa(lp171
I15
aI9
aI0
aI0
aa(lp172
I8
aI4
aI0
aI0
aa(lp173
I22
aI17
aI0
aI0
aa(lp174
I20
aI14
aI0
aI0
aa(lp175
I16
aI11
aI0
aI0
aa(lp176
I14
aI8
aI0
aI0
aa(lp177
I15
aI9
aI0
aI0
aa(lp178
I20
aI14
aI0
aI0
aa(lp179
I15
aI10
aI0
aI0
aa(lp180
I16
aI11
aI0
aI0
aa(lp181
I21
aI15
aI0
aI0
aa(lp182
I20
aI13
aI0
aI0
aa(lp183
I20
aI12
aI0
aI0
aa(lp184
I14
aI7
aI0
aI0
aa(lp185
I17
aI11
aI0
aI0
aa(lp186
I19
aI14
aI0
aI0
aa(lp187
I18
aI12
aI0
aI0
aa(lp188
I15
aI10
aI0
aI0
aa(lp189
I15
aI7
aI0
aI0
aa(lp190
I23
aI12
aI0
aI0
aa(lp191
I11
aI7
aI0
aI0
aa(lp192
I14
aI8
aI0
aI0
aa(lp193
I11
aI5
aI0
aI0
aa(lp194
I16
aI10
aI0
aI0
aa(lp195
I13
aI7
aI0
aI0
aa(lp196
I17
aI10
aI0
aI0
aa(lp197
I17
aI12
aI0
aI0
aa(lp198
I12
aI6
aI0
aI0
aa(lp199
I15
aI8
aI0
aI0
aa(lp200
I13
aI7
aI0
aI0
aa(lp201
I19
aI12
aI0
aI0
aa(lp202
I15
aI10
aI0
aI0
aa(lp203
I21
aI17
aI0
aI0
aa(lp204
I24
aI16
aI0
aI0
aa(lp205
I19
aI13
aI0
aI0
aa(lp206
I16
aI9
aI0
aI0
aa(lp207
I19
aI13
aI0
aI0
aa(lp208
I11
aI7
aI0
aI0
aa(lp209
I14
aI8
aI0
aI0
aa(lp210
I10
aI5
aI0
aI0
aa(lp211
I9
aI5
aI0
aI0
aa(lp212
I16
aI10
aI0
aI0
aa(lp213
I17
aI13
aI0
aI0
aa(lp214
I14
aI10
aI0
aI0
aa(lp215
I20
aI13
aI0
aI0
aa(lp216
I21
aI15
aI0
aI0
aa(lp217
I19
aI14
aI0
aI0
aa(lp218
I14
aI10
aI0
aI0
aa(lp219
I15
aI10
aI0
aI0
aa(lp220
I11
aI5
aI0
aI0
aa(lp221
I20
aI14
aI0
aI0
aa(lp222
I22
aI13
aI0
aI0
aa(lp223
I16
aI10
aI0
aI0
aa(lp224
I22
aI17
aI0
aI0
aa(lp225
I21
aI15
aI0
aI0
aa(lp226
I17
aI10
aI0
aI0
aa(lp227
I19
aI13
aI0
aI0
aa(lp228
I13
aI8
aI0
aI0
aa(lp229
I16
aI6
aI0
aI0
aa(lp230
I17
aI11
aI0
aI0
aa(lp231
I13
aI8
aI0
aI0
aa(lp232
I13
aI7
aI0
aI0
aa(lp233
I12
aI6
aI0
aI0
aa(lp234
I11
aI7
aI0
aI0
aa(lp235
I19
aI13
aI0
aI0
aa(lp236
I12
aI7
aI0
aI0
aa(lp237
I20
aI14
aI0
aI0
aa(lp238
I17
aI10
aI0
aI0
aa(lp239
I10
aI4
aI0
aI0
aa(lp240
I15
aI11
aI0
aI0
aa(lp241
I10
aI6
aI0
aI0
aa(lp242
I15
aI8
aI0
aI0
aa(lp243
I24
aI17
aI0
aI0
aa(lp244
I23
aI17
aI0
aI0
aa(lp245
I17
aI11
aI0
aI0
aa(lp246
I16
aI10
aI0
aI0
aa(lp247
I11
aI6
aI0
aI0
aa(lp248
I22
aI16
aI0
aI0
aa(lp249
I23
aI17
aI0
aI0
aa(lp250
I18
aI12
aI0
aI0
aa(lp251
I16
aI10
aI0
aI0
aa(lp252
I22
aI17
aI0
aI0
aa(lp253
I23
aI15
aI0
aI0
aa(lp254
I13
aI8
aI0
aI0
aa(lp255
I18
aI13
aI0
aI0
aa(lp256
I15
aI10
aI0
aI0
aa(lp257
I15
aI9
aI0
aI0
aa(lp258
I23
aI18
aI0
aI0
aa(lp259
I21
aI12
aI0
aI0
aa(lp260
I13
aI8
aI0
aI0
aa(lp261
I15
aI10
aI0
aI0
aa(lp262
I18
aI11
aI0
aI0
aa(lp263
I17
aI11
aI0
aI0
aa(lp264
I11
aI6
aI0
aI0
aa(lp265
I14
aI9
aI0
aI0
aa(lp266
I17
aI12
aI0
aI0
aa(lp267
I16
aI10
aI0
aI0
aa(lp268
I17
aI10
aI0
aI0
aa(lp269
I16
aI10
aI0
aI0
aa(lp270
I13
aI8
aI0
aI0
aa(lp271
I22
aI15
aI0
aI0
aa(lp272
I14
aI7
aI0
aI0
aa(lp273
I16
aI10
aI0
aI0
aa(lp274
I16
aI8
aI0
aI0
aa(lp275
I17
aI13
aI0
aI0
aa(lp276
I18
aI12
aI0
aI0
aa(lp277
I18
aI12
aI0
aI0
aa(lp278
I14
aI8
aI0
aI0
aa(lp279
I18
aI12
aI0
aI0
aa(lp280
I16
aI8
aI0
aI0
aa(lp281
I18
aI11
aI0
aI0
aa(lp282
I24
aI18
aI0
aI0
aa(lp283
I17
aI10
aI0
aI0
aa(lp284
I23
aI15
aI0
aI0
aa(lp285
I24
aI19
aI0
aI0
aa(lp286
I23
aI16
aI0
aI0
aa(lp287
I25
aI18
aI0
aI0
aa(lp288
I14
aI7
aI0
aI0
aa(lp289
I21
aI14
aI0
aI0
aa(lp290
I24
aI16
aI0
aI0
aa(lp291
I13
aI7
aI0
aI0
aa(lp292
I14
aI9
aI0
aI0
aa(lp293
I14
aI8
aI0
aI0
aa(lp294
I21
aI13
aI0
aI0
aa(lp295
I23
aI17
aI0
aI0
aa(lp296
I15
aI10
aI0
aI0
aa(lp297
I20
aI15
aI0
aI0
aa(lp298
I17
aI11
aI0
aI0
aa(lp299
I19
aI14
aI0
aI0
aa(lp300
I14
aI7
aI0
aI0
aa(lp301
I14
aI9
aI0
aI0
aa(lp302
I17
aI10
aI0
aI0
aa(lp303
I17
aI11
aI0
aI0
aa(lp304
I21
aI15
aI0
aI0
aa(lp305
I14
aI10
aI0
aI0
aa(lp306
I23
aI11
aI0
aI0
aa(lp307
I16
aI9
aI0
aI0
aa(lp308
I10
aI6
aI0
aI0
aa(lp309
I20
aI13
aI0
aI0
aa(lp310
I16
aI10
aI0
aI0
aa(lp311
I22
aI15
aI0
aI0
aa(lp312
I22
aI16
aI0
aI0
aa(lp313
I25
aI19
aI0
aI0
aa(lp314
I22
aI17
aI0
aI0
aa(lp315
I21
aI13
aI0
aI0
aa(lp316
I11
aI4
aI0
aI0
aa(lp317
I14
aI10
aI0
aI0
aa(lp318
I18
aI12
aI0
aI0
aa(lp319
I17
aI10
aI0
aI0
aa(lp320
I21
aI14
aI0
aI0
aa(lp321
I9
aI6
aI0
aI0
aa(lp322
I15
aI10
aI0
aI0
aa(lp323
I16
aI8
aI0
aI0
aa(lp324
I14
aI9
aI0
aI0
aa(lp325
I21
aI16
aI0
aI0
aa(lp326
I19
aI11
aI0
aI0
aa(lp327
I20
aI13
aI0
aI0
aa(lp328
I14
aI8
aI0
aI0
aa(lp329
I18
aI11
aI0
aI0
aa(lp330
I16
aI10
aI0
aI0
aa(lp331
I13
aI8
aI0
aI0
aa(lp332
I20
aI14
aI0
aI0
aa(lp333
I15
aI9
aI0
aI0
aa(lp334
I15
aI10
aI0
aI0
aa(lp335
I18
aI12
aI0
aI0
aa(lp336
I8
aI3
aI0
aI0
aa(lp337
I9
aI6
aI0
aI0
aa(lp338
I14
aI8
aI0
aI0
aa(lp339
I11
aI5
aI0
aI0
aa(lp340
I10
aI6
aI0
aI0
aa(lp341
I12
aI7
aI0
aI0
aa(lp342
I15
aI10
aI0
aI0
aa(lp343
I12
aI8
aI0
aI0
aa(lp344
I10
aI6
aI0
aI0
aa(lp345
I17
aI11
aI0
aI0
aa(lp346
I14
aI8
aI0
aI0
aa(lp347
I13
aI8
aI0
aI0
aa(lp348
I15
aI9
aI0
aI0
aa(lp349
I16
aI13
aI0
aI0
aa(lp350
I15
aI10
aI0
aI0
aa(lp351
I16
aI10
aI0
aI0
aa(lp352
I10
aI4
aI0
aI0
aa(lp353
I12
aI7
aI0
aI0
aa(lp354
I12
aI7
aI0
aI0
aa(lp355
I13
aI8
aI0
aI0
aa(lp356
I13
aI9
aI0
aI0
aa(lp357
I15
aI10
aI0
aI0
aa(lp358
I17
aI9
aI0
aI0
aa(lp359
I13
aI10
aI0
aI0
aa(lp360
I16
aI10
aI0
aI0
aa(lp361
I14
aI9
aI0
aI0
aa(lp362
I12
aI6
aI0
aI0
aa(lp363
I13
aI8
aI0
aI0
aa(lp364
I14
aI9
aI0
aI0
aa(lp365
I17
aI12
aI0
aI0
aa(lp366
I9
aI6
aI0
aI0
aa(lp367
I11
aI6
aI0
aI0
aa(lp368
I11
aI5
aI0
aI0
aa(lp369
I9
aI5
aI0
aI0
aa(lp370
I13
aI9
aI0
aI0
aa(lp371
I11
aI6
aI0
aI0
aa(lp372
I10
aI6
aI0
aI0
aa(lp373
I9
aI4
aI0
aI0
aa(lp374
I22
aI16
aI0
aI0
aa(lp375
I10
aI6
aI0
aI0
aa(lp376
I15
aI9
aI0
aI0
aa(lp377
I10
aI5
aI0
aI0
aa(lp378
I11
aI6
aI0
aI0
aa(lp379
I13
aI7
aI0
aI0
aa(lp380
I11
aI6
aI0
aI0
aa(lp381
I12
aI6
aI0
aI0
aa(lp382
I11
aI6
aI0
aI0
aa(lp383
I10
aI5
aI0
aI0
aa(lp384
I8
aI3
aI0
aI0
aa(lp385
I11
aI7
aI0
aI0
aa(lp386
I11
aI8
aI0
aI0
aa(lp387
I10
aI5
aI0
aI0
aa(lp388
I13
aI6
aI0
aI0
aa(lp389
I12
aI6
aI0
aI0
aa(lp390
I14
aI9
aI0
aI0
aa(lp391
I11
aI6
aI0
aI0
aa(lp392
I14
aI8
aI0
aI0
aa(lp393
I12
aI7
aI0
aI0
aa(lp394
I12
aI6
aI0
aI0
aa(lp395
I12
aI8
aI0
aI0
aa(lp396
I13
aI8
aI0
aI0
aa(lp397
I9
aI5
aI0
aI0
aa(lp398
I11
aI6
aI0
aI0
aa(lp399
I16
aI11
aI0
aI0
aa(lp400
I10
aI5
aI0
aI0
aa(lp401
I10
aI6
aI0
aI0
aa(lp402
I10
aI6
aI0
aI0
aa(lp403
I15
aI11
aI0
aI0
aa.